; Function Attrs: nounwind uwtable
define ptr @l_Lean_PrettyPrinter_ppUsing(ptr noundef %0, ptr noundef %1, ptr noundef %2, ptr noundef %3, ptr noundef %4, ptr noundef %5, ptr noundef %6) local_unnamed_addr #0 {
  %8 = getelementptr inbounds nuw i8, ptr %2, i64 24
  %9 = load ptr, ptr %8, align 8, !tbaa !9
  %10 = ptrtoint ptr %9 to i64
  %11 = and i64 %10, 1
  %.not = icmp eq i64 %11, 0
  br i1 %.not, label %12, label %lean_inc.exit28

12:                                               ; preds = %7
  %.val.i = load i32, ptr %9, align 4, !tbaa !4
  %13 = icmp sgt i32 %.val.i, 0
  br i1 %13, label %14, label %16, !prof !11

14:                                               ; preds = %12
  %15 = add nuw i32 %.val.i, 1
  store i32 %15, ptr %9, align 4, !tbaa !4
  br label %lean_inc.exit28

16:                                               ; preds = %12
  %.not.i29 = icmp eq i32 %.val.i, 0
  br i1 %.not.i29, label %lean_inc.exit28, label %17

17:                                               ; preds = %16
  tail call void @lean_inc_ref_cold(ptr noundef nonnull %9) #6
  br label %lean_inc.exit28

lean_inc.exit28:                                  ; preds = %17, %16, %14, %7
  %18 = getelementptr inbounds nuw i8, ptr %4, i64 24
  %19 = load ptr, ptr %18, align 8, !tbaa !9
  %20 = ptrtoint ptr %19 to i64
  %21 = and i64 %20, 1
  %.not36 = icmp eq i64 %21, 0
  br i1 %.not36, label %22, label %lean_inc.exit27

22:                                               ; preds = %lean_inc.exit28
  %.val.i30 = load i32, ptr %19, align 4, !tbaa !4
  %23 = icmp sgt i32 %.val.i30, 0
  br i1 %23, label %24, label %26, !prof !11

24:                                               ; preds = %22
  %25 = add nuw i32 %.val.i30, 1
  store i32 %25, ptr %19, align 4, !tbaa !4
  br label %lean_inc.exit27

26:                                               ; preds = %22
  %.not.i31 = icmp eq i32 %.val.i30, 0
  br i1 %.not.i31, label %lean_inc.exit27, label %27

27:                                               ; preds = %26
  tail call void @lean_inc_ref_cold(ptr noundef nonnull %19) #6
  br label %lean_inc.exit27

lean_inc.exit27:                                  ; preds = %27, %26, %24, %lean_inc.exit28
  tail call void @lean_inc_heartbeat() #6
  %28 = tail call noalias ptr @mi_malloc_small(i64 noundef 32) #6
  %29 = icmp eq ptr %28, null
  br i1 %29, label %30, label %lean_alloc_ctor.exit

30:                                               ; preds = %lean_inc.exit27
  tail call void @lean_internal_panic_out_of_memory() #7
  unreachable

lean_alloc_ctor.exit:                             ; preds = %lean_inc.exit27
  %31 = getelementptr inbounds nuw i8, ptr %28, i64 4
  store i32 1, ptr %28, align 4, !tbaa !4
  store i32 196640, ptr %31, align 4
  %32 = getelementptr inbounds nuw i8, ptr %28, i64 8
  store ptr %19, ptr %32, align 8, !tbaa !9
  %33 = getelementptr inbounds nuw i8, ptr %28, i64 16
  store ptr inttoptr (i64 1 to ptr), ptr %33, align 8, !tbaa !9
  %34 = getelementptr inbounds nuw i8, ptr %28, i64 24
  store ptr inttoptr (i64 1 to ptr), ptr %34, align 8, !tbaa !9
  %35 = tail call ptr @l_Lean_LocalContext_sanitizeNames(ptr noundef %9, ptr noundef nonnull %28) #6
  %36 = getelementptr inbounds nuw i8, ptr %35, i64 8
  %37 = load ptr, ptr %36, align 8, !tbaa !9
  %38 = ptrtoint ptr %37 to i64
  %39 = and i64 %38, 1
  %.not37 = icmp eq i64 %39, 0
  br i1 %.not37, label %40, label %lean_inc.exit

40:                                               ; preds = %lean_alloc_ctor.exit
  %.val.i33 = load i32, ptr %37, align 4, !tbaa !4
  %41 = icmp sgt i32 %.val.i33, 0
  br i1 %41, label %42, label %44, !prof !11

42:                                               ; preds = %40
  %43 = add nuw i32 %.val.i33, 1
  store i32 %43, ptr %37, align 4, !tbaa !4
  br label %lean_inc.exit

44:                                               ; preds = %40
  %.not.i34 = icmp eq i32 %.val.i33, 0
  br i1 %.not.i34, label %lean_inc.exit, label %45

45:                                               ; preds = %44
  tail call void @lean_inc_ref_cold(ptr noundef nonnull %37) #6
  br label %lean_inc.exit

lean_inc.exit:                                    ; preds = %45, %44, %42, %lean_alloc_ctor.exit
  %46 = ptrtoint ptr %35 to i64
  %47 = and i64 %46, 1
  %.not38 = icmp eq i64 %47, 0
  br i1 %.not38, label %48, label %lean_dec.exit

48:                                               ; preds = %lean_inc.exit
  %49 = load i32, ptr %35, align 4, !tbaa !4
  %50 = icmp sgt i32 %49, 1
  br i1 %50, label %51, label %53, !prof !11

51:                                               ; preds = %48
  %52 = add nsw i32 %49, -1
  store i32 %52, ptr %35, align 4, !tbaa !4
  br label %lean_dec.exit

53:                                               ; preds = %48
  %.not.i = icmp eq i32 %49, 0
  br i1 %.not.i, label %lean_dec.exit, label %54

54:                                               ; preds = %53
  tail call void @lean_dec_ref_cold(ptr noundef nonnull %35) #6
  br label %lean_dec.exit

lean_dec.exit:                                    ; preds = %54, %53, %51, %lean_inc.exit
  tail call void @lean_inc_heartbeat() #6
  %55 = tail call noalias ptr @mi_malloc_small(i64 noundef 40) #6
  %56 = icmp eq ptr %55, null
  br i1 %56, label %57, label %lean_alloc_closure.exit

57:                                               ; preds = %lean_dec.exit
  tail call void @lean_internal_panic_out_of_memory() #7
  unreachable

lean_alloc_closure.exit:                          ; preds = %lean_dec.exit
  %58 = getelementptr inbounds nuw i8, ptr %55, i64 4
  store i32 1, ptr %55, align 4, !tbaa !4
  store i32 -184549336, ptr %58, align 4
  %59 = getelementptr inbounds nuw i8, ptr %55, i64 8
  store ptr @l_Lean_PrettyPrinter_ppUsing___lambda__1, ptr %59, align 8, !tbaa !9
  %60 = getelementptr inbounds nuw i8, ptr %55, i64 16
  store i16 7, ptr %60, align 8, !tbaa !15
  %61 = getelementptr inbounds nuw i8, ptr %55, i64 18
  store i16 2, ptr %61, align 2, !tbaa !15
  %62 = getelementptr inbounds nuw i8, ptr %55, i64 24
  store ptr %1, ptr %62, align 8, !tbaa !9
  %63 = getelementptr inbounds nuw i8, ptr %55, i64 32
  store ptr %0, ptr %63, align 8, !tbaa !9
  %64 = tail call ptr @l_Lean_Meta_withLCtx_x27___at_Lean_PrettyPrinter_ppUsing___spec__1___rarg(ptr noundef %37, ptr noundef nonnull %55, ptr noundef nonnull %2, ptr noundef %3, ptr noundef nonnull %4, ptr noundef %5, ptr noundef %6)
  ret ptr %64
}